; Function Attrs: nounwind uwtable
define internal void @engineLibraryDispose(ptr readnone captures(none) %0, ptr noundef %1) #1 {
  %.not.i = icmp eq ptr %1, null
  br i1 %.not.i, label %engineLibraryFree.exit, label %3

3:                                                ; preds = %2
  %4 = getelementptr inbounds nuw i8, ptr %1, i64 8
  %5 = load ptr, ptr %4, align 8, !tbaa !30
  tail call void @dictRelease(ptr noundef %5) #12
  %6 = load ptr, ptr %1, align 8, !tbaa !31
  tail call void @sdsfree(ptr noundef %6) #12
  %7 = getelementptr inbounds nuw i8, ptr %1, i64 24
  %8 = load ptr, ptr %7, align 8, !tbaa !32
  tail call void @sdsfree(ptr noundef %8) #12
  tail call void @zfree(ptr noundef nonnull %1) #12
  br label %engineLibraryFree.exit

engineLibraryFree.exit:                           ; preds = %2, %3
  ret void
}